; Function Attrs: mustprogress nounwind uwtable
define hidden void @_ZN5boost9unit_test6output19junit_log_formatter16test_unit_finishERSoRKNS0_9test_unitEm(ptr nocapture noundef nonnull align 8 dereferenceable(208) %0, ptr nocapture nonnull readnone align 8 %1, ptr nocapture nonnull readnone align 8 %2, i64 %3) unnamed_addr #6 align 2 personality ptr @__gxx_personality_v0 {
  %5 = getelementptr inbounds nuw i8, ptr %0, i64 184
  %6 = load ptr, ptr %5, align 8, !tbaa !24
  %7 = getelementptr inbounds nuw i8, ptr %0, i64 192
  %8 = load i64, ptr %7, align 8, !tbaa !82
  %9 = add i64 %8, -1
  store i64 %9, ptr %7, align 8, !tbaa !82
  tail call void @_ZNSt8__detail15_List_node_base9_M_unhookEv(ptr noundef nonnull align 8 dereferenceable(16) %6) #28
  tail call void @_ZdlPvm(ptr noundef nonnull %6, i64 noundef 24) #26
  ret void
}